target datalayout = "e-m:e-p270:32:32-p271:32:32-p272:64:64-i64:64-i128:128-f80:128-n8:16:32:64-S128"
target triple = "x86_64-pc-linux-gnu"

@.str.122 = private unnamed_addr constant [21 x i8] c"MACsec Key Agreement\00", align 1
@.str.123 = private unnamed_addr constant [10 x i8] c"EAPOL-MKA\00", align 1
@.str.124 = private unnamed_addr constant [4 x i8] c"mka\00", align 1
@proto_mka = internal global i32 0, align 4
@.str.131 = private unnamed_addr constant [9 x i8] c"CKN Info\00", align 1
@.str.132 = private unnamed_addr constant [13 x i8] c"mka_ckn_info\00", align 1
@mka_ckn_uat_data = internal global ptr null, align 8
@num_mka_ckn_uat_data = internal global i32 0, align 4
@.str.133 = private unnamed_addr constant [9 x i8] c"ckn_info\00", align 1
@.str.134 = private unnamed_addr constant [32 x i8] c"A table to define names of CKNs\00", align 1

; Function Attrs: null_pointer_is_valid sspstrong uwtable
define hidden void @proto_register_mka() #0 {
  %1 = alloca ptr, align 8
  %2 = alloca ptr, align 8
  %3 = alloca ptr, align 8
  call void @llvm.lifetime.start.p0(i64 8, ptr %1) #8
  call void @llvm.lifetime.start.p0(i64 8, ptr %2) #8
  store ptr null, ptr %2, align 8
  call void @llvm.lifetime.start.p0(i64 8, ptr %3) #8
  store ptr null, ptr %3, align 8
  %4 = call i32 @proto_register_protocol(ptr noundef @.str.122, ptr noundef @.str.123, ptr noundef @.str.124)
  store i32 %4, ptr @proto_mka, align 4
  %5 = load i32, ptr @proto_mka, align 4
  %6 = call ptr @register_dissector(ptr noundef @.str.124, ptr noundef @dissect_mka, i32 noundef %5)
  %7 = load i32, ptr @proto_mka, align 4
  call void @proto_register_field_array(i32 noundef %7, ptr noundef @proto_register_mka.hf, i32 noundef 58)
  call void @proto_register_subtree_array(ptr noundef @proto_register_mka.ett, i32 noundef 13)
  %8 = load i32, ptr @proto_mka, align 4
  %9 = call ptr @expert_register_protocol(i32 noundef %8)
  store ptr %9, ptr %2, align 8
  %10 = load ptr, ptr %2, align 8
  call void @expert_register_field_array(ptr noundef %10, ptr noundef @proto_register_mka.ei, i32 noundef 3)
  %11 = load i32, ptr @proto_mka, align 4
  %12 = call ptr @prefs_register_protocol(i32 noundef %11, ptr noundef null)
  store ptr %12, ptr %1, align 8
  %13 = call ptr @uat_new(ptr noundef @.str.131, i64 noundef 24, ptr noundef @.str.132, i1 noundef zeroext true, ptr noundef @mka_ckn_uat_data, ptr noundef @num_mka_ckn_uat_data, i32 noundef 1, ptr noundef null, ptr noundef @ckn_info_copy_cb, ptr noundef @ckn_info_update_cb, ptr noundef @ckn_info_free_cb, ptr noundef @ckn_info_post_update_cb, ptr noundef @ckn_info_reset_cb, ptr noundef @proto_register_mka.mka_ckn_uat_fields)
  store ptr %13, ptr %3, align 8
  %14 = load ptr, ptr %1, align 8
  %15 = load ptr, ptr %3, align 8
  call void @prefs_register_uat_preference(ptr noundef %14, ptr noundef @.str.133, ptr noundef @.str.131, ptr noundef @.str.134, ptr noundef %15)
  call void @llvm.lifetime.end.p0(i64 8, ptr %3) #8
  call void @llvm.lifetime.end.p0(i64 8, ptr %2) #8
  call void @llvm.lifetime.end.p0(i64 8, ptr %1) #8
  ret void
}