; Function Attrs: null_pointer_is_valid sspstrong uwtable
define hidden void @proto_register_mka() local_unnamed_addr #0 {
  %1 = tail call i32 @proto_register_protocol(ptr noundef nonnull @.str.122, ptr noundef nonnull @.str.123, ptr noundef nonnull @.str.124)
  store i32 %1, ptr @proto_mka, align 4
  %2 = tail call ptr @register_dissector(ptr noundef nonnull @.str.124, ptr noundef nonnull @dissect_mka, i32 noundef %1)
  %3 = load i32, ptr @proto_mka, align 4
  tail call void @proto_register_field_array(i32 noundef %3, ptr noundef nonnull @proto_register_mka.hf, i32 noundef 58)
  tail call void @proto_register_subtree_array(ptr noundef nonnull @proto_register_mka.ett, i32 noundef 13)
  %4 = load i32, ptr @proto_mka, align 4
  %5 = tail call ptr @expert_register_protocol(i32 noundef %4)
  tail call void @expert_register_field_array(ptr noundef %5, ptr noundef nonnull @proto_register_mka.ei, i32 noundef 3)
  %6 = load i32, ptr @proto_mka, align 4
  %7 = tail call ptr @prefs_register_protocol(i32 noundef %6, ptr noundef null)
  %8 = tail call ptr @uat_new(ptr noundef nonnull @.str.131, i64 noundef 24, ptr noundef nonnull @.str.132, i1 noundef zeroext true, ptr noundef nonnull @mka_ckn_uat_data, ptr noundef nonnull @num_mka_ckn_uat_data, i32 noundef 1, ptr noundef null, ptr noundef nonnull @ckn_info_copy_cb, ptr noundef nonnull @ckn_info_update_cb, ptr noundef nonnull @ckn_info_free_cb, ptr noundef nonnull @ckn_info_post_update_cb, ptr noundef nonnull @ckn_info_reset_cb, ptr noundef nonnull @proto_register_mka.mka_ckn_uat_fields)
  tail call void @prefs_register_uat_preference(ptr noundef %7, ptr noundef nonnull @.str.133, ptr noundef nonnull @.str.131, ptr noundef nonnull @.str.134, ptr noundef %8)
  ret void
}